target datalayout = "e-m:e-p270:32:32-p271:32:32-p272:64:64-i64:64-i128:128-f80:128-n8:16:32:64-S128"
target triple = "x86_64-pc-linux-gnu"

%"class.std::__cxx11::basic_string" = type { %"struct.std::__cxx11::basic_string<char>::_Alloc_hider", i64, %union.anon }
%"struct.std::__cxx11::basic_string<char>::_Alloc_hider" = type { ptr }
%union.anon = type { i64, [8 x i8] }
%"class.std::__cxx11::basic_stringstream" = type { %"class.std::basic_iostream.base", %"class.std::__cxx11::basic_stringbuf", %"class.std::basic_ios" }
%"class.std::basic_iostream.base" = type { %"class.std::basic_istream.base", %"class.std::basic_ostream.base" }
%"class.std::basic_istream.base" = type { ptr, i64 }
%"class.std::basic_ostream.base" = type { ptr }
%"class.std::__cxx11::basic_stringbuf" = type { %"class.std::basic_streambuf", i32, %"class.std::__cxx11::basic_string" }
%"class.std::basic_streambuf" = type { ptr, ptr, ptr, ptr, ptr, ptr, ptr, %"class.std::locale" }
%"class.std::locale" = type { ptr }
%"class.std::basic_ios" = type { %"class.std::ios_base", ptr, i8, i8, ptr, ptr, ptr, ptr }
%"class.std::ios_base" = type { ptr, i64, i64, i32, i32, i32, ptr, %"struct.std::ios_base::_Words", [8 x %"struct.std::ios_base::_Words"], i32, ptr, %"class.std::locale" }
%"struct.std::ios_base::_Words" = type { ptr, i64 }
%"struct.std::_Setw" = type { i32 }
%struct.pos = type { [4 x [4 x i16]], [4 x i16], [4 x [4 x i8]], [4 x i32], [50 x [4 x i16]], [50 x i32], [50 x %struct.moveType], i32, i32, [4 x %struct.highCardType], [4 x %struct.highCardType] }
%struct.moveType = type { i32, i32, i32, i32 }
%struct.highCardType = type { i32, i32 }

@.str.4 = private unnamed_addr constant [2 x i8] c"\0A\00", align 1
@.str.15 = private unnamed_addr constant [7 x i8] c"Target\00", align 1
@.str.16 = private unnamed_addr constant [6 x i8] c"Depth\00", align 1
@.str.17 = private unnamed_addr constant [10 x i8] c"tricksMAX\00", align 1
@.str.18 = private unnamed_addr constant [11 x i8] c"First hand\00", align 1
@cardHand = external global [4 x i8], align 1
@.str.19 = private unnamed_addr constant [11 x i8] c"Next first\00", align 1

; Function Attrs: mustprogress nounwind uwtable
define linkonce_odr i32 @_ZSt4setwi(i32 noundef %0) #5 comdat {
  %2 = alloca %"struct.std::_Setw", align 4
  %3 = alloca i32, align 4
  store i32 %0, ptr %3, align 4
  %4 = getelementptr inbounds nuw %"struct.std::_Setw", ptr %2, i32 0, i32 0
  %5 = load i32, ptr %3, align 4
  store i32 %5, ptr %4, align 4
  %6 = getelementptr inbounds nuw %"struct.std::_Setw", ptr %2, i32 0, i32 0
  %7 = load i32, ptr %6, align 4
  ret i32 %7
}

; Function Attrs: mustprogress uwtable
define void @_Z9PosToTextB5cxx11RK3posii(ptr dead_on_unwind noalias writable sret(%"class.std::__cxx11::basic_string") align 8 %0, ptr noundef nonnull align 4 dereferenceable(1544) %1, i32 noundef %2, i32 noundef %3) #4 personality ptr @__gxx_personality_v0 {
  %5 = alloca ptr, align 8
  %6 = alloca ptr, align 8
  %7 = alloca i32, align 4
  %8 = alloca i32, align 4
  %9 = alloca %"class.std::__cxx11::basic_stringstream", align 8
  %10 = alloca %"struct.std::_Setw", align 4
  %11 = alloca ptr, align 8
  %12 = alloca i32, align 4
  %13 = alloca %"struct.std::_Setw", align 4
  %14 = alloca %"struct.std::_Setw", align 4
  %15 = alloca %"struct.std::_Setw", align 4
  %16 = alloca %"struct.std::_Setw", align 4
  store ptr %0, ptr %5, align 8
  store ptr %1, ptr %6, align 8
  store i32 %2, ptr %7, align 4
  store i32 %3, ptr %8, align 4
  call void @_ZNSt7__cxx1118basic_stringstreamIcSt11char_traitsIcESaIcEEC1Ev(ptr noundef nonnull align 8 dereferenceable(128) %9)
  %17 = getelementptr inbounds i8, ptr %9, i64 16
  %18 = invoke i32 @_ZSt4setwi(i32 noundef 16)
          to label %19 unwind label %114

19:                                               ; preds = %4
  %20 = getelementptr inbounds nuw %"struct.std::_Setw", ptr %10, i32 0, i32 0
  store i32 %18, ptr %20, align 4
  %21 = getelementptr inbounds nuw %"struct.std::_Setw", ptr %10, i32 0, i32 0
  %22 = load i32, ptr %21, align 4
  %23 = invoke noundef nonnull align 8 dereferenceable(8) ptr @_ZStlsIcSt11char_traitsIcEERSt13basic_ostreamIT_T0_ES6_St5_Setw(ptr noundef nonnull align 8 dereferenceable(8) %17, i32 %22)
          to label %24 unwind label %114

24:                                               ; preds = %19
  %25 = invoke noundef nonnull align 8 dereferenceable(8) ptr @_ZNSolsEPFRSt8ios_baseS0_E(ptr noundef nonnull align 8 dereferenceable(8) %23, ptr noundef @_ZSt4leftRSt8ios_base)
          to label %26 unwind label %114

26:                                               ; preds = %24
  %27 = invoke noundef nonnull align 8 dereferenceable(8) ptr @_ZStlsISt11char_traitsIcEERSt13basic_ostreamIcT_ES5_PKc(ptr noundef nonnull align 8 dereferenceable(8) %25, ptr noundef @.str.15)
          to label %28 unwind label %114

28:                                               ; preds = %26
  %29 = load i32, ptr %7, align 4
  %30 = invoke noundef nonnull align 8 dereferenceable(8) ptr @_ZNSolsEi(ptr noundef nonnull align 8 dereferenceable(8) %27, i32 noundef %29)
          to label %31 unwind label %114

31:                                               ; preds = %28
  %32 = invoke noundef nonnull align 8 dereferenceable(8) ptr @_ZStlsISt11char_traitsIcEERSt13basic_ostreamIcT_ES5_PKc(ptr noundef nonnull align 8 dereferenceable(8) %30, ptr noundef @.str.4)
          to label %33 unwind label %114

33:                                               ; preds = %31
  %34 = getelementptr inbounds i8, ptr %9, i64 16
  %35 = invoke i32 @_ZSt4setwi(i32 noundef 16)
          to label %36 unwind label %114

36:                                               ; preds = %33
  %37 = getelementptr inbounds nuw %"struct.std::_Setw", ptr %13, i32 0, i32 0
  store i32 %35, ptr %37, align 4
  %38 = getelementptr inbounds nuw %"struct.std::_Setw", ptr %13, i32 0, i32 0
  %39 = load i32, ptr %38, align 4
  %40 = invoke noundef nonnull align 8 dereferenceable(8) ptr @_ZStlsIcSt11char_traitsIcEERSt13basic_ostreamIT_T0_ES6_St5_Setw(ptr noundef nonnull align 8 dereferenceable(8) %34, i32 %39)
          to label %41 unwind label %114

41:                                               ; preds = %36
  %42 = invoke noundef nonnull align 8 dereferenceable(8) ptr @_ZStlsISt11char_traitsIcEERSt13basic_ostreamIcT_ES5_PKc(ptr noundef nonnull align 8 dereferenceable(8) %40, ptr noundef @.str.16)
          to label %43 unwind label %114

43:                                               ; preds = %41
  %44 = load i32, ptr %8, align 4
  %45 = invoke noundef nonnull align 8 dereferenceable(8) ptr @_ZNSolsEi(ptr noundef nonnull align 8 dereferenceable(8) %42, i32 noundef %44)
          to label %46 unwind label %114

46:                                               ; preds = %43
  %47 = invoke noundef nonnull align 8 dereferenceable(8) ptr @_ZStlsISt11char_traitsIcEERSt13basic_ostreamIcT_ES5_PKc(ptr noundef nonnull align 8 dereferenceable(8) %45, ptr noundef @.str.4)
          to label %48 unwind label %114

48:                                               ; preds = %46
  %49 = getelementptr inbounds i8, ptr %9, i64 16
  %50 = invoke i32 @_ZSt4setwi(i32 noundef 16)
          to label %51 unwind label %114

51:                                               ; preds = %48
  %52 = getelementptr inbounds nuw %"struct.std::_Setw", ptr %14, i32 0, i32 0
  store i32 %50, ptr %52, align 4
  %53 = getelementptr inbounds nuw %"struct.std::_Setw", ptr %14, i32 0, i32 0
  %54 = load i32, ptr %53, align 4
  %55 = invoke noundef nonnull align 8 dereferenceable(8) ptr @_ZStlsIcSt11char_traitsIcEERSt13basic_ostreamIT_T0_ES6_St5_Setw(ptr noundef nonnull align 8 dereferenceable(8) %49, i32 %54)
          to label %56 unwind label %114

56:                                               ; preds = %51
  %57 = invoke noundef nonnull align 8 dereferenceable(8) ptr @_ZStlsISt11char_traitsIcEERSt13basic_ostreamIcT_ES5_PKc(ptr noundef nonnull align 8 dereferenceable(8) %55, ptr noundef @.str.17)
          to label %58 unwind label %114

58:                                               ; preds = %56
  %59 = load ptr, ptr %6, align 8
  %60 = getelementptr inbounds nuw %struct.pos, ptr %59, i32 0, i32 8
  %61 = load i32, ptr %60, align 4
  %62 = invoke noundef nonnull align 8 dereferenceable(8) ptr @_ZNSolsEi(ptr noundef nonnull align 8 dereferenceable(8) %57, i32 noundef %61)
          to label %63 unwind label %114

63:                                               ; preds = %58
  %64 = invoke noundef nonnull align 8 dereferenceable(8) ptr @_ZStlsISt11char_traitsIcEERSt13basic_ostreamIcT_ES5_PKc(ptr noundef nonnull align 8 dereferenceable(8) %62, ptr noundef @.str.4)
          to label %65 unwind label %114

65:                                               ; preds = %63
  %66 = getelementptr inbounds i8, ptr %9, i64 16
  %67 = invoke i32 @_ZSt4setwi(i32 noundef 16)
          to label %68 unwind label %114

68:                                               ; preds = %65
  %69 = getelementptr inbounds nuw %"struct.std::_Setw", ptr %15, i32 0, i32 0
  store i32 %67, ptr %69, align 4
  %70 = getelementptr inbounds nuw %"struct.std::_Setw", ptr %15, i32 0, i32 0
  %71 = load i32, ptr %70, align 4
  %72 = invoke noundef nonnull align 8 dereferenceable(8) ptr @_ZStlsIcSt11char_traitsIcEERSt13basic_ostreamIT_T0_ES6_St5_Setw(ptr noundef nonnull align 8 dereferenceable(8) %66, i32 %71)
          to label %73 unwind label %114

73:                                               ; preds = %68
  %74 = invoke noundef nonnull align 8 dereferenceable(8) ptr @_ZStlsISt11char_traitsIcEERSt13basic_ostreamIcT_ES5_PKc(ptr noundef nonnull align 8 dereferenceable(8) %72, ptr noundef @.str.18)
          to label %75 unwind label %114

75:                                               ; preds = %73
  %76 = load ptr, ptr %6, align 8
  %77 = getelementptr inbounds nuw %struct.pos, ptr %76, i32 0, i32 5
  %78 = load i32, ptr %8, align 4
  %79 = sext i32 %78 to i64
  %80 = getelementptr inbounds [50 x i32], ptr %77, i64 0, i64 %79
  %81 = load i32, ptr %80, align 4
  %82 = sext i32 %81 to i64
  %83 = getelementptr inbounds [4 x i8], ptr @cardHand, i64 0, i64 %82
  %84 = load i8, ptr %83, align 1
  %85 = invoke noundef nonnull align 8 dereferenceable(8) ptr @_ZStlsISt11char_traitsIcEERSt13basic_ostreamIcT_ES5_h(ptr noundef nonnull align 8 dereferenceable(8) %74, i8 noundef zeroext %84)
          to label %86 unwind label %114

86:                                               ; preds = %75
  %87 = invoke noundef nonnull align 8 dereferenceable(8) ptr @_ZStlsISt11char_traitsIcEERSt13basic_ostreamIcT_ES5_PKc(ptr noundef nonnull align 8 dereferenceable(8) %85, ptr noundef @.str.4)
          to label %88 unwind label %114

88:                                               ; preds = %86
  %89 = getelementptr inbounds i8, ptr %9, i64 16
  %90 = invoke i32 @_ZSt4setwi(i32 noundef 16)
          to label %91 unwind label %114

91:                                               ; preds = %88
  %92 = getelementptr inbounds nuw %"struct.std::_Setw", ptr %16, i32 0, i32 0
  store i32 %90, ptr %92, align 4
  %93 = getelementptr inbounds nuw %"struct.std::_Setw", ptr %16, i32 0, i32 0
  %94 = load i32, ptr %93, align 4
  %95 = invoke noundef nonnull align 8 dereferenceable(8) ptr @_ZStlsIcSt11char_traitsIcEERSt13basic_ostreamIT_T0_ES6_St5_Setw(ptr noundef nonnull align 8 dereferenceable(8) %89, i32 %94)
          to label %96 unwind label %114

96:                                               ; preds = %91
  %97 = invoke noundef nonnull align 8 dereferenceable(8) ptr @_ZStlsISt11char_traitsIcEERSt13basic_ostreamIcT_ES5_PKc(ptr noundef nonnull align 8 dereferenceable(8) %95, ptr noundef @.str.19)
          to label %98 unwind label %114

98:                                               ; preds = %96
  %99 = load ptr, ptr %6, align 8
  %100 = getelementptr inbounds nuw %struct.pos, ptr %99, i32 0, i32 5
  %101 = load i32, ptr %8, align 4
  %102 = sub nsw i32 %101, 1
  %103 = sext i32 %102 to i64
  %104 = getelementptr inbounds [50 x i32], ptr %100, i64 0, i64 %103
  %105 = load i32, ptr %104, align 4
  %106 = sext i32 %105 to i64
  %107 = getelementptr inbounds [4 x i8], ptr @cardHand, i64 0, i64 %106
  %108 = load i8, ptr %107, align 1
  %109 = invoke noundef nonnull align 8 dereferenceable(8) ptr @_ZStlsISt11char_traitsIcEERSt13basic_ostreamIcT_ES5_h(ptr noundef nonnull align 8 dereferenceable(8) %97, i8 noundef zeroext %108)
          to label %110 unwind label %114

110:                                              ; preds = %98
  %111 = invoke noundef nonnull align 8 dereferenceable(8) ptr @_ZStlsISt11char_traitsIcEERSt13basic_ostreamIcT_ES5_PKc(ptr noundef nonnull align 8 dereferenceable(8) %109, ptr noundef @.str.4)
          to label %112 unwind label %114

112:                                              ; preds = %110
  invoke void @_ZNKSt7__cxx1118basic_stringstreamIcSt11char_traitsIcESaIcEE3strEv(ptr dead_on_unwind writable sret(%"class.std::__cxx11::basic_string") align 8 %0, ptr noundef nonnull align 8 dereferenceable(128) %9)
          to label %113 unwind label %114

113:                                              ; preds = %112
  call void @_ZNSt7__cxx1118basic_stringstreamIcSt11char_traitsIcESaIcEED1Ev(ptr noundef nonnull align 8 dereferenceable(128) %9) #3
  ret void

114:                                              ; preds = %112, %110, %98, %96, %91, %88, %86, %75, %73, %68, %65, %63, %58, %56, %51, %48, %46, %43, %41, %36, %33, %31, %28, %26, %24, %19, %4
  %115 = landingpad { ptr, i32 }
          cleanup
  %116 = extractvalue { ptr, i32 } %115, 0
  store ptr %116, ptr %11, align 8
  %117 = extractvalue { ptr, i32 } %115, 1
  store i32 %117, ptr %12, align 4
  call void @_ZNSt7__cxx1118basic_stringstreamIcSt11char_traitsIcESaIcEED1Ev(ptr noundef nonnull align 8 dereferenceable(128) %9) #3
  br label %118

118:                                              ; preds = %114
  %119 = load ptr, ptr %11, align 8
  %120 = load i32, ptr %12, align 4
  %121 = insertvalue { ptr, i32 } poison, ptr %119, 0
  %122 = insertvalue { ptr, i32 } %121, i32 %120, 1
  resume { ptr, i32 } %122
}